
rechnen.elf:     file format elf32-avr

Sections:
Idx Name          Size      VMA       LMA       File off  Algn
  0 .data         00000000  00800200  00800200  0000030c  2**0
                  CONTENTS, ALLOC, LOAD, DATA
  1 .text         000002b8  00000000  00000000  00000054  2**1
                  CONTENTS, ALLOC, LOAD, READONLY, CODE
  2 .comment      00000030  00000000  00000000  0000030c  2**0
                  CONTENTS, READONLY
  3 .note.gnu.avr.deviceinfo 00000040  00000000  00000000  0000033c  2**2
                  CONTENTS, READONLY
  4 .debug_aranges 00000080  00000000  00000000  0000037c  2**0
                  CONTENTS, READONLY, DEBUGGING
  5 .debug_info   00000ffe  00000000  00000000  000003fc  2**0
                  CONTENTS, READONLY, DEBUGGING
  6 .debug_abbrev 00000d3e  00000000  00000000  000013fa  2**0
                  CONTENTS, READONLY, DEBUGGING
  7 .debug_line   000005a7  00000000  00000000  00002138  2**0
                  CONTENTS, READONLY, DEBUGGING
  8 .debug_frame  000000c8  00000000  00000000  000026e0  2**2
                  CONTENTS, READONLY, DEBUGGING
  9 .debug_str    00000650  00000000  00000000  000027a8  2**0
                  CONTENTS, READONLY, DEBUGGING
 10 .debug_loc    00000248  00000000  00000000  00002df8  2**0
                  CONTENTS, READONLY, DEBUGGING
 11 .debug_ranges 00000060  00000000  00000000  00003040  2**0
                  CONTENTS, READONLY, DEBUGGING

Disassembly of section .text:

00000000 <__vectors>:
   0:	71 c0       	rjmp	.+226    	; 0xe4 <__ctors_end>
   2:	00 00       	nop
   4:	79 c0       	rjmp	.+242    	; 0xf8 <__bad_interrupt>
   6:	00 00       	nop
   8:	77 c0       	rjmp	.+238    	; 0xf8 <__bad_interrupt>
   a:	00 00       	nop
   c:	75 c0       	rjmp	.+234    	; 0xf8 <__bad_interrupt>
   e:	00 00       	nop
  10:	73 c0       	rjmp	.+230    	; 0xf8 <__bad_interrupt>
  12:	00 00       	nop
  14:	71 c0       	rjmp	.+226    	; 0xf8 <__bad_interrupt>
  16:	00 00       	nop
  18:	6f c0       	rjmp	.+222    	; 0xf8 <__bad_interrupt>
  1a:	00 00       	nop
  1c:	6d c0       	rjmp	.+218    	; 0xf8 <__bad_interrupt>
  1e:	00 00       	nop
  20:	6b c0       	rjmp	.+214    	; 0xf8 <__bad_interrupt>
  22:	00 00       	nop
  24:	69 c0       	rjmp	.+210    	; 0xf8 <__bad_interrupt>
  26:	00 00       	nop
  28:	67 c0       	rjmp	.+206    	; 0xf8 <__bad_interrupt>
  2a:	00 00       	nop
  2c:	65 c0       	rjmp	.+202    	; 0xf8 <__bad_interrupt>
  2e:	00 00       	nop
  30:	63 c0       	rjmp	.+198    	; 0xf8 <__bad_interrupt>
  32:	00 00       	nop
  34:	61 c0       	rjmp	.+194    	; 0xf8 <__bad_interrupt>
  36:	00 00       	nop
  38:	5f c0       	rjmp	.+190    	; 0xf8 <__bad_interrupt>
  3a:	00 00       	nop
  3c:	5d c0       	rjmp	.+186    	; 0xf8 <__bad_interrupt>
  3e:	00 00       	nop
  40:	5b c0       	rjmp	.+182    	; 0xf8 <__bad_interrupt>
  42:	00 00       	nop
  44:	59 c0       	rjmp	.+178    	; 0xf8 <__bad_interrupt>
  46:	00 00       	nop
  48:	57 c0       	rjmp	.+174    	; 0xf8 <__bad_interrupt>
  4a:	00 00       	nop
  4c:	55 c0       	rjmp	.+170    	; 0xf8 <__bad_interrupt>
  4e:	00 00       	nop
  50:	53 c0       	rjmp	.+166    	; 0xf8 <__bad_interrupt>
  52:	00 00       	nop
  54:	51 c0       	rjmp	.+162    	; 0xf8 <__bad_interrupt>
  56:	00 00       	nop
  58:	4f c0       	rjmp	.+158    	; 0xf8 <__bad_interrupt>
  5a:	00 00       	nop
  5c:	4d c0       	rjmp	.+154    	; 0xf8 <__bad_interrupt>
  5e:	00 00       	nop
  60:	4b c0       	rjmp	.+150    	; 0xf8 <__bad_interrupt>
  62:	00 00       	nop
  64:	49 c0       	rjmp	.+146    	; 0xf8 <__bad_interrupt>
  66:	00 00       	nop
  68:	47 c0       	rjmp	.+142    	; 0xf8 <__bad_interrupt>
  6a:	00 00       	nop
  6c:	45 c0       	rjmp	.+138    	; 0xf8 <__bad_interrupt>
  6e:	00 00       	nop
  70:	43 c0       	rjmp	.+134    	; 0xf8 <__bad_interrupt>
  72:	00 00       	nop
  74:	41 c0       	rjmp	.+130    	; 0xf8 <__bad_interrupt>
  76:	00 00       	nop
  78:	3f c0       	rjmp	.+126    	; 0xf8 <__bad_interrupt>
  7a:	00 00       	nop
  7c:	3d c0       	rjmp	.+122    	; 0xf8 <__bad_interrupt>
  7e:	00 00       	nop
  80:	3b c0       	rjmp	.+118    	; 0xf8 <__bad_interrupt>
  82:	00 00       	nop
  84:	39 c0       	rjmp	.+114    	; 0xf8 <__bad_interrupt>
  86:	00 00       	nop
  88:	37 c0       	rjmp	.+110    	; 0xf8 <__bad_interrupt>
  8a:	00 00       	nop
  8c:	35 c0       	rjmp	.+106    	; 0xf8 <__bad_interrupt>
  8e:	00 00       	nop
  90:	33 c0       	rjmp	.+102    	; 0xf8 <__bad_interrupt>
  92:	00 00       	nop
  94:	31 c0       	rjmp	.+98     	; 0xf8 <__bad_interrupt>
  96:	00 00       	nop
  98:	2f c0       	rjmp	.+94     	; 0xf8 <__bad_interrupt>
  9a:	00 00       	nop
  9c:	2d c0       	rjmp	.+90     	; 0xf8 <__bad_interrupt>
  9e:	00 00       	nop
  a0:	2b c0       	rjmp	.+86     	; 0xf8 <__bad_interrupt>
  a2:	00 00       	nop
  a4:	29 c0       	rjmp	.+82     	; 0xf8 <__bad_interrupt>
  a6:	00 00       	nop
  a8:	27 c0       	rjmp	.+78     	; 0xf8 <__bad_interrupt>
  aa:	00 00       	nop
  ac:	25 c0       	rjmp	.+74     	; 0xf8 <__bad_interrupt>
  ae:	00 00       	nop
  b0:	23 c0       	rjmp	.+70     	; 0xf8 <__bad_interrupt>
  b2:	00 00       	nop
  b4:	21 c0       	rjmp	.+66     	; 0xf8 <__bad_interrupt>
  b6:	00 00       	nop
  b8:	1f c0       	rjmp	.+62     	; 0xf8 <__bad_interrupt>
  ba:	00 00       	nop
  bc:	1d c0       	rjmp	.+58     	; 0xf8 <__bad_interrupt>
  be:	00 00       	nop
  c0:	1b c0       	rjmp	.+54     	; 0xf8 <__bad_interrupt>
  c2:	00 00       	nop
  c4:	19 c0       	rjmp	.+50     	; 0xf8 <__bad_interrupt>
  c6:	00 00       	nop
  c8:	17 c0       	rjmp	.+46     	; 0xf8 <__bad_interrupt>
  ca:	00 00       	nop
  cc:	15 c0       	rjmp	.+42     	; 0xf8 <__bad_interrupt>
  ce:	00 00       	nop
  d0:	13 c0       	rjmp	.+38     	; 0xf8 <__bad_interrupt>
  d2:	00 00       	nop
  d4:	11 c0       	rjmp	.+34     	; 0xf8 <__bad_interrupt>
  d6:	00 00       	nop
  d8:	0f c0       	rjmp	.+30     	; 0xf8 <__bad_interrupt>
  da:	00 00       	nop
  dc:	0d c0       	rjmp	.+26     	; 0xf8 <__bad_interrupt>
  de:	00 00       	nop
  e0:	0b c0       	rjmp	.+22     	; 0xf8 <__bad_interrupt>
	...

000000e4 <__ctors_end>:
  e4:	11 24       	eor	r1, r1
  e6:	1f be       	out	0x3f, r1	; 63
  e8:	cf ef       	ldi	r28, 0xFF	; 255
  ea:	d1 e2       	ldi	r29, 0x21	; 33
  ec:	de bf       	out	0x3e, r29	; 62
  ee:	cd bf       	out	0x3d, r28	; 61
  f0:	00 e0       	ldi	r16, 0x00	; 0
  f2:	0c bf       	out	0x3c, r16	; 60
  f4:	63 d0       	rcall	.+198    	; 0x1bc <main>
  f6:	de c0       	rjmp	.+444    	; 0x2b4 <_exit>

000000f8 <__bad_interrupt>:
  f8:	83 cf       	rjmp	.-250    	; 0x0 <__vectors>

000000fa <initBoard>:
} 

uint16_t ledReadAll()
{
    return PORTA|(PORTB<<8);
}
  fa:	8f ef       	ldi	r24, 0xFF	; 255
  fc:	81 b9       	out	0x01, r24	; 1
  fe:	84 b9       	out	0x04, r24	; 4
 100:	17 b8       	out	0x07, r1	; 7
 102:	88 b9       	out	0x08, r24	; 8
 104:	08 95       	ret

00000106 <ledWriteAll>:
 106:	82 b9       	out	0x02, r24	; 2
 108:	95 b9       	out	0x05, r25	; 5
 10a:	08 95       	ret

0000010c <initAdc>:

void initAdc(void)
{
    //PORTF (ADC, X4) Eingang ohne PullUps
    PORTF   = 0x00;
 10c:	11 ba       	out	0x11, r1	; 17
    DDRF    = 0x00;
 10e:	10 ba       	out	0x10, r1	; 16
    //PORTK (ADC-Inputs) alles auf Eingang ohne Pullup
    PORTK   = 0x00;
 110:	10 92 08 01 	sts	0x0108, r1	; 0x800108 <__TEXT_REGION_LENGTH__+0x7c0108>
    DDRK    = 0x00;
 114:	10 92 07 01 	sts	0x0107, r1	; 0x800107 <__TEXT_REGION_LENGTH__+0x7c0107>
    
    ADMUX  = 0x40;    //AVCC Als referenz
 118:	80 e4       	ldi	r24, 0x40	; 64
 11a:	80 93 7c 00 	sts	0x007C, r24	; 0x80007c <__TEXT_REGION_LENGTH__+0x7c007c>
    DIDR0  = 0x0F;    // Digitale Register an ADC pins der Potentiometer deaktivieren
 11e:	8f e0       	ldi	r24, 0x0F	; 15
 120:	80 93 7e 00 	sts	0x007E, r24	; 0x80007e <__TEXT_REGION_LENGTH__+0x7c007e>
    DIDR2  = 0xFF;
 124:	8f ef       	ldi	r24, 0xFF	; 255
 126:	80 93 7d 00 	sts	0x007D, r24	; 0x80007d <__TEXT_REGION_LENGTH__+0x7c007d>
    
    ADCSRA = 0b10100111; // ADC einschalten, ADC clok = 16MHz / 128 --> 8us/cycle
 12a:	ea e7       	ldi	r30, 0x7A	; 122
 12c:	f0 e0       	ldi	r31, 0x00	; 0
 12e:	87 ea       	ldi	r24, 0xA7	; 167
 130:	80 83       	st	Z, r24
    ADCSRB = 0x00;    // Free runing mode
 132:	10 92 7b 00 	sts	0x007B, r1	; 0x80007b <__TEXT_REGION_LENGTH__+0x7c007b>
    
    ADCSRA |=  0b01000000;        // Dummy messung Starten
 136:	80 81       	ld	r24, Z
 138:	80 64       	ori	r24, 0x40	; 64
 13a:	80 83       	st	Z, r24
    while((ADCSRA&0x10) == 0);    // Warten bis Messung abgeschllossen
 13c:	80 91 7a 00 	lds	r24, 0x007A	; 0x80007a <__TEXT_REGION_LENGTH__+0x7c007a>
 140:	84 ff       	sbrs	r24, 4
 142:	fc cf       	rjmp	.-8      	; 0x13c <initAdc+0x30>
    
    ADCSRA &= 0xEF;                // Interruptflage löschen
 144:	ea e7       	ldi	r30, 0x7A	; 122
 146:	f0 e0       	ldi	r31, 0x00	; 0
 148:	80 81       	ld	r24, Z
 14a:	8f 7e       	andi	r24, 0xEF	; 239
 14c:	80 83       	st	Z, r24
 14e:	08 95       	ret

00000150 <adcRead>:
uint16_t adcRead(uint8_t kanal)
{
    uint16_t messwert = 0;
    
    // Kanal definieren
    ADMUX  = 0x40;    //AVCC Als referenz
 150:	90 e4       	ldi	r25, 0x40	; 64
 152:	90 93 7c 00 	sts	0x007C, r25	; 0x80007c <__TEXT_REGION_LENGTH__+0x7c007c>
    if(kanal>=8)
 156:	88 30       	cpi	r24, 0x08	; 8
 158:	60 f0       	brcs	.+24     	; 0x172 <adcRead+0x22>
    {    ADMUX  |= kanal-8;
 15a:	ec e7       	ldi	r30, 0x7C	; 124
 15c:	f0 e0       	ldi	r31, 0x00	; 0
 15e:	90 81       	ld	r25, Z
 160:	88 50       	subi	r24, 0x08	; 8
 162:	89 2b       	or	r24, r25
 164:	80 83       	st	Z, r24
        ADCSRB |= (3 << MUX5);
 166:	eb e7       	ldi	r30, 0x7B	; 123
 168:	f0 e0       	ldi	r31, 0x00	; 0
 16a:	80 81       	ld	r24, Z
 16c:	88 61       	ori	r24, 0x18	; 24
 16e:	80 83       	st	Z, r24
 170:	0a c0       	rjmp	.+20     	; 0x186 <adcRead+0x36>
    }
    else
    {    ADMUX  |= kanal;
 172:	ec e7       	ldi	r30, 0x7C	; 124
 174:	f0 e0       	ldi	r31, 0x00	; 0
 176:	90 81       	ld	r25, Z
 178:	89 2b       	or	r24, r25
 17a:	80 83       	st	Z, r24
        ADCSRB &= ~(3 << MUX5);
 17c:	eb e7       	ldi	r30, 0x7B	; 123
 17e:	f0 e0       	ldi	r31, 0x00	; 0
 180:	80 81       	ld	r24, Z
 182:	87 7e       	andi	r24, 0xE7	; 231
 184:	80 83       	st	Z, r24
    }
    
    
    ADCSRA |=  0b01000000;        // ADC Starten
 186:	ea e7       	ldi	r30, 0x7A	; 122
 188:	f0 e0       	ldi	r31, 0x00	; 0
 18a:	80 81       	ld	r24, Z
 18c:	80 64       	ori	r24, 0x40	; 64
 18e:	80 83       	st	Z, r24
    while((ADCSRA&0x10) == 0);    // Warten bis Messung abgeschllossen
 190:	80 91 7a 00 	lds	r24, 0x007A	; 0x80007a <__TEXT_REGION_LENGTH__+0x7c007a>
 194:	84 ff       	sbrs	r24, 4
 196:	fc cf       	rjmp	.-8      	; 0x190 <adcRead+0x40>
    milliseconds can be achieved.
 */
void
_delay_loop_2(uint16_t __count)
{
	__asm__ volatile (
 198:	80 eb       	ldi	r24, 0xB0	; 176
 19a:	94 e0       	ldi	r25, 0x04	; 4
 19c:	01 97       	sbiw	r24, 0x01	; 1
 19e:	f1 f7       	brne	.-4      	; 0x19c <adcRead+0x4c>
    
    _delay_us(300);//25 ADC clock cycles
    
    messwert = ADCL;
 1a0:	30 91 78 00 	lds	r19, 0x0078	; 0x800078 <__TEXT_REGION_LENGTH__+0x7c0078>
    messwert |= ADCH <<8;
 1a4:	80 91 79 00 	lds	r24, 0x0079	; 0x800079 <__TEXT_REGION_LENGTH__+0x7c0079>
 1a8:	90 e0       	ldi	r25, 0x00	; 0
 1aa:	98 2f       	mov	r25, r24
 1ac:	88 27       	eor	r24, r24
    
    ADCSRA &= 0xEF;                // Interruptflage löschen
 1ae:	ea e7       	ldi	r30, 0x7A	; 122
 1b0:	f0 e0       	ldi	r31, 0x00	; 0
 1b2:	20 81       	ld	r18, Z
 1b4:	2f 7e       	andi	r18, 0xEF	; 239
 1b6:	20 83       	st	Z, r18
    
    return messwert;
}
 1b8:	83 2b       	or	r24, r19
 1ba:	08 95       	ret

000001bc <main>:
    uint16_t adcmax=1023;
    uint16_t weightMax= 65000;
    uint32_t adctemp =0;
    uint8_t  flagminus=0;
    uint32_t temp=0;
    initBoard();
 1bc:	9e df       	rcall	.-196    	; 0xfa <initBoard>
    initAdc();
 1be:	a6 df       	rcall	.-180    	; 0x10c <initAdc>
 1c0:	c0 e0       	ldi	r28, 0x00	; 0
    while (1) 
    {
        adcval  =adcRead(8);
 1c2:	88 e0       	ldi	r24, 0x08	; 8
 1c4:	c5 df       	rcall	.-118    	; 0x150 <adcRead>
 1c6:	9c 01       	movw	r18, r24
        adcmV   =(uint32_t) adcval*5000/1023;
 1c8:	a8 e8       	ldi	r26, 0x88	; 136
 1ca:	b3 e1       	ldi	r27, 0x13	; 19
 1cc:	64 d0       	rcall	.+200    	; 0x296 <__umulhisi3>
 1ce:	2f ef       	ldi	r18, 0xFF	; 255
 1d0:	33 e0       	ldi	r19, 0x03	; 3
 1d2:	40 e0       	ldi	r20, 0x00	; 0
 1d4:	50 e0       	ldi	r21, 0x00	; 0
 1d6:	3d d0       	rcall	.+122    	; 0x252 <__udivmodsi4>
 1d8:	25 3c       	cpi	r18, 0xC5	; 197
        
        if (adcmV>2500)
 1da:	69 e0       	ldi	r22, 0x09	; 9
 1dc:	36 07       	cpc	r19, r22
 1de:	a8 f0       	brcs	.+42     	; 0x20a <main+0x4e>
 1e0:	a9 01       	movw	r20, r18
        {
            temp=(adcmV-2500)/25;
 1e2:	44 5c       	subi	r20, 0xC4	; 196
 1e4:	59 40       	sbci	r21, 0x09	; 9
 1e6:	9a 01       	movw	r18, r20
 1e8:	af ea       	ldi	r26, 0xAF	; 175
 1ea:	b7 e4       	ldi	r27, 0x47	; 71
 1ec:	54 d0       	rcall	.+168    	; 0x296 <__umulhisi3>
 1ee:	48 1b       	sub	r20, r24
 1f0:	59 0b       	sbc	r21, r25
 1f2:	56 95       	lsr	r21
 1f4:	47 95       	ror	r20
 1f6:	84 0f       	add	r24, r20
 1f8:	95 1f       	adc	r25, r21
 1fa:	92 95       	swap	r25
 1fc:	82 95       	swap	r24
 1fe:	8f 70       	andi	r24, 0x0F	; 15
 200:	89 27       	eor	r24, r25
 202:	9f 70       	andi	r25, 0x0F	; 15
 204:	89 27       	eor	r24, r25
 206:	c0 e0       	ldi	r28, 0x00	; 0
            flagminus=0;
 208:	1e c0       	rjmp	.+60     	; 0x246 <main+0x8a>
 20a:	24 3c       	cpi	r18, 0xC4	; 196
        }
        else if (adcmV<2500)
 20c:	69 e0       	ldi	r22, 0x09	; 9
 20e:	36 07       	cpc	r19, r22
 210:	b8 f4       	brcc	.+46     	; 0x240 <main+0x84>
 212:	84 ec       	ldi	r24, 0xC4	; 196
        {
            temp=(2500-adcmV)/25;
 214:	99 e0       	ldi	r25, 0x09	; 9
 216:	ac 01       	movw	r20, r24
 218:	42 1b       	sub	r20, r18
 21a:	53 0b       	sbc	r21, r19
 21c:	9a 01       	movw	r18, r20
 21e:	af ea       	ldi	r26, 0xAF	; 175
 220:	b7 e4       	ldi	r27, 0x47	; 71
 222:	39 d0       	rcall	.+114    	; 0x296 <__umulhisi3>
 224:	48 1b       	sub	r20, r24
 226:	59 0b       	sbc	r21, r25
 228:	56 95       	lsr	r21
 22a:	47 95       	ror	r20
 22c:	84 0f       	add	r24, r20
 22e:	95 1f       	adc	r25, r21
 230:	92 95       	swap	r25
 232:	82 95       	swap	r24
 234:	8f 70       	andi	r24, 0x0F	; 15
 236:	89 27       	eor	r24, r25
 238:	9f 70       	andi	r25, 0x0F	; 15
 23a:	89 27       	eor	r24, r25
 23c:	c0 e8       	ldi	r28, 0x80	; 128
            flagminus=0x80;
 23e:	03 c0       	rjmp	.+6      	; 0x246 <main+0x8a>
 240:	80 e0       	ldi	r24, 0x00	; 0
        }
        else
        {
            temp=0;
 242:	90 e0       	ldi	r25, 0x00	; 0
 244:	dc 01       	movw	r26, r24
            
        }
        
        ledWriteAll(temp|flagminus);
 246:	2c 2f       	mov	r18, r28
 248:	30 e0       	ldi	r19, 0x00	; 0
 24a:	82 2b       	or	r24, r18
 24c:	93 2b       	or	r25, r19
 24e:	5b df       	rcall	.-330    	; 0x106 <ledWriteAll>
 250:	b8 cf       	rjmp	.-144    	; 0x1c2 <main+0x6>

00000252 <__udivmodsi4>:
    }
 252:	a1 e2       	ldi	r26, 0x21	; 33
 254:	1a 2e       	mov	r1, r26
 256:	aa 1b       	sub	r26, r26
 258:	bb 1b       	sub	r27, r27
 25a:	fd 01       	movw	r30, r26
 25c:	0d c0       	rjmp	.+26     	; 0x278 <__udivmodsi4_ep>

0000025e <__udivmodsi4_loop>:
 25e:	aa 1f       	adc	r26, r26
 260:	bb 1f       	adc	r27, r27
 262:	ee 1f       	adc	r30, r30
 264:	ff 1f       	adc	r31, r31
 266:	a2 17       	cp	r26, r18
 268:	b3 07       	cpc	r27, r19
 26a:	e4 07       	cpc	r30, r20
 26c:	f5 07       	cpc	r31, r21
 26e:	20 f0       	brcs	.+8      	; 0x278 <__udivmodsi4_ep>
 270:	a2 1b       	sub	r26, r18
 272:	b3 0b       	sbc	r27, r19
 274:	e4 0b       	sbc	r30, r20
 276:	f5 0b       	sbc	r31, r21

00000278 <__udivmodsi4_ep>:
 278:	66 1f       	adc	r22, r22
 27a:	77 1f       	adc	r23, r23
 27c:	88 1f       	adc	r24, r24
 27e:	99 1f       	adc	r25, r25
 280:	1a 94       	dec	r1
 282:	69 f7       	brne	.-38     	; 0x25e <__udivmodsi4_loop>
 284:	60 95       	com	r22
 286:	70 95       	com	r23
 288:	80 95       	com	r24
 28a:	90 95       	com	r25
 28c:	9b 01       	movw	r18, r22
 28e:	ac 01       	movw	r20, r24
 290:	bd 01       	movw	r22, r26
 292:	cf 01       	movw	r24, r30
 294:	08 95       	ret

00000296 <__umulhisi3>:
 296:	a2 9f       	mul	r26, r18
 298:	b0 01       	movw	r22, r0
 29a:	b3 9f       	mul	r27, r19
 29c:	c0 01       	movw	r24, r0
 29e:	a3 9f       	mul	r26, r19
 2a0:	70 0d       	add	r23, r0
 2a2:	81 1d       	adc	r24, r1
 2a4:	11 24       	eor	r1, r1
 2a6:	91 1d       	adc	r25, r1
 2a8:	b2 9f       	mul	r27, r18
 2aa:	70 0d       	add	r23, r0
 2ac:	81 1d       	adc	r24, r1
 2ae:	11 24       	eor	r1, r1
 2b0:	91 1d       	adc	r25, r1
 2b2:	08 95       	ret

000002b4 <_exit>:
 2b4:	f8 94       	cli

000002b6 <__stop_program>:
 2b6:	ff cf       	rjmp	.-2      	; 0x2b6 <__stop_program>
